; Function Attrs: mustprogress uwtable
define internal noundef zeroext i1 @"_ZNSt17_Function_handlerIFbRKNSt7__cxx1112basic_stringIcSt11char_traitsIcESaIcEEEEZN12_GLOBAL__N_18do_buildEiPKPKcE3$_5E9_M_invokeERKSt9_Any_dataS7_"(ptr noundef nonnull readonly align 8 captures(none) dereferenceable(16) %0, ptr noundef nonnull align 8 dereferenceable(32) %1) #8 align 2 personality ptr @__gxx_personality_v0 {
  %3 = alloca %"class.std::__cxx11::basic_string", align 8
  call void @llvm.lifetime.start.p0(i64 32, ptr nonnull %3)
  call void @_ZNSt7__cxx1112basic_stringIcSt11char_traitsIcESaIcEEC1ERKS4_(ptr noundef nonnull align 8 dereferenceable(32) %3, ptr noundef nonnull align 8 dereferenceable(32) %1)
  %4 = call ptr @_ZNSt7__cxx1112basic_stringIcSt11char_traitsIcESaIcEE5beginEv(ptr noundef nonnull align 8 dereferenceable(32) %3) #27
  %5 = call ptr @_ZNSt7__cxx1112basic_stringIcSt11char_traitsIcESaIcEE3endEv(ptr noundef nonnull align 8 dereferenceable(32) %3) #27
  %6 = call ptr @_ZNSt7__cxx1112basic_stringIcSt11char_traitsIcESaIcEE5beginEv(ptr noundef nonnull align 8 dereferenceable(32) %3) #27
  %.not6.i.i.i.i = icmp eq ptr %4, %5
  br i1 %.not6.i.i.i.i, label %_ZSt9transformIN9__gnu_cxx17__normal_iteratorIPcNSt7__cxx1112basic_stringIcSt11char_traitsIcESaIcEEEEES9_PDoFiiEET0_T_SD_SC_T1_.exit.i.i.i, label %.lr.ph.i.i.i.i

.lr.ph.i.i.i.i:                                   ; preds = %2, %.lr.ph.i.i.i.i
  %.sroa.0.08.i.i.i.i = phi ptr [ %12, %.lr.ph.i.i.i.i ], [ %6, %2 ]
  %.sroa.03.07.i.i.i.i = phi ptr [ %11, %.lr.ph.i.i.i.i ], [ %4, %2 ]
  %7 = load i8, ptr %.sroa.03.07.i.i.i.i, align 1
  %8 = sext i8 %7 to i32
  %9 = call noundef i32 @tolower(i32 noundef %8) #27
  %10 = trunc i32 %9 to i8
  store i8 %10, ptr %.sroa.0.08.i.i.i.i, align 1
  %11 = getelementptr inbounds nuw i8, ptr %.sroa.03.07.i.i.i.i, i64 1
  %12 = getelementptr inbounds nuw i8, ptr %.sroa.0.08.i.i.i.i, i64 1
  %.not.i.i.i.i = icmp eq ptr %11, %5
  br i1 %.not.i.i.i.i, label %_ZSt9transformIN9__gnu_cxx17__normal_iteratorIPcNSt7__cxx1112basic_stringIcSt11char_traitsIcESaIcEEEEES9_PDoFiiEET0_T_SD_SC_T1_.exit.i.i.i, label %.lr.ph.i.i.i.i, !llvm.loop !359

_ZSt9transformIN9__gnu_cxx17__normal_iteratorIPcNSt7__cxx1112basic_stringIcSt11char_traitsIcESaIcEEEEES9_PDoFiiEET0_T_SD_SC_T1_.exit.i.i.i: ; preds = %.lr.ph.i.i.i.i, %2
  %13 = call noundef i32 @_ZNKSt7__cxx1112basic_stringIcSt11char_traitsIcESaIcEE7compareEPKc(ptr noundef nonnull align 8 dereferenceable(32) %3, ptr noundef nonnull @.str.108) #27
  %14 = icmp eq i32 %13, 0
  br i1 %14, label %.sink.split.i.i.i, label %15

15:                                               ; preds = %_ZSt9transformIN9__gnu_cxx17__normal_iteratorIPcNSt7__cxx1112basic_stringIcSt11char_traitsIcESaIcEEEEES9_PDoFiiEET0_T_SD_SC_T1_.exit.i.i.i
  %16 = call noundef i32 @_ZNKSt7__cxx1112basic_stringIcSt11char_traitsIcESaIcEE7compareEPKc(ptr noundef nonnull align 8 dereferenceable(32) %3, ptr noundef nonnull @.str.109) #27
  %17 = icmp eq i32 %16, 0
  br i1 %17, label %.sink.split.i.i.i, label %18

18:                                               ; preds = %15
  %19 = call noundef i32 @_ZNKSt7__cxx1112basic_stringIcSt11char_traitsIcESaIcEE7compareEPKc(ptr noundef nonnull align 8 dereferenceable(32) %3, ptr noundef nonnull @.str.110) #27
  %20 = icmp eq i32 %19, 0
  br i1 %20, label %.sink.split.i.i.i, label %"_ZSt10__invoke_rIbRZN12_GLOBAL__N_18do_buildEiPKPKcE3$_5JRKNSt7__cxx1112basic_stringIcSt11char_traitsIcESaIcEEEEENSt9enable_ifIX16is_invocable_r_vIT_T0_DpT1_EESG_E4typeEOSH_DpOSI_.exit"

.sink.split.i.i.i:                                ; preds = %18, %15, %_ZSt9transformIN9__gnu_cxx17__normal_iteratorIPcNSt7__cxx1112basic_stringIcSt11char_traitsIcESaIcEEEEES9_PDoFiiEET0_T_SD_SC_T1_.exit.i.i.i
  %.sink.i.i.i = phi i32 [ 1, %_ZSt9transformIN9__gnu_cxx17__normal_iteratorIPcNSt7__cxx1112basic_stringIcSt11char_traitsIcESaIcEEEEES9_PDoFiiEET0_T_SD_SC_T1_.exit.i.i.i ], [ 2, %15 ], [ 3, %18 ]
  %21 = load ptr, ptr %0, align 8
  store i32 %.sink.i.i.i, ptr %21, align 4
  br label %"_ZSt10__invoke_rIbRZN12_GLOBAL__N_18do_buildEiPKPKcE3$_5JRKNSt7__cxx1112basic_stringIcSt11char_traitsIcESaIcEEEEENSt9enable_ifIX16is_invocable_r_vIT_T0_DpT1_EESG_E4typeEOSH_DpOSI_.exit"

"_ZSt10__invoke_rIbRZN12_GLOBAL__N_18do_buildEiPKPKcE3$_5JRKNSt7__cxx1112basic_stringIcSt11char_traitsIcESaIcEEEEENSt9enable_ifIX16is_invocable_r_vIT_T0_DpT1_EESG_E4typeEOSH_DpOSI_.exit": ; preds = %18, %.sink.split.i.i.i
  %.0.i.i.i = phi i1 [ false, %18 ], [ true, %.sink.split.i.i.i ]
  call void @_ZNSt7__cxx1112basic_stringIcSt11char_traitsIcESaIcEED1Ev(ptr noundef nonnull align 8 dereferenceable(32) %3) #27
  call void @llvm.lifetime.end.p0(i64 32, ptr nonnull %3)
  ret i1 %.0.i.i.i
}